target datalayout = "e-m:e-p270:32:32-p271:32:32-p272:64:64-i64:64-i128:128-f80:128-n8:16:32:64-S128"
target triple = "x86_64-unknown-linux-gnu"

%"class.v8::Local" = type { %"class.v8::LocalBase" }
%"class.v8::LocalBase" = type { %"class.v8::IndirectHandleBase" }
%"class.v8::IndirectHandleBase" = type { ptr }
%"class.std::__shared_count" = type { ptr }
%struct.uv__queue = type { ptr, ptr }
%struct.uv_async_s = type { ptr, ptr, i32, ptr, %struct.uv__queue, %union.anon.8, ptr, i32, ptr, %struct.uv__queue, i32 }
%union.anon.8 = type { [4 x ptr] }
%union.pthread_mutex_t = type { %struct.__pthread_mutex_s }
%struct.__pthread_mutex_s = type { i32, i32, i32, i32, i32, i16, i16, %struct.__pthread_internal_list }
%struct.__pthread_internal_list = type { ptr, ptr }
%"class.std::shared_ptr.262" = type { %"class.std::__shared_ptr.263" }
%"class.std::__shared_ptr.263" = type { ptr, %"class.std::__shared_count" }
%"class.node::CommonEnvironmentSetup" = type { ptr }
%"struct.node::CommonEnvironmentSetup::Impl" = type { ptr, %struct.uv_loop_s, %"class.std::shared_ptr.262", %"class.std::optional", ptr, %"class.std::unique_ptr.267", %"class.std::unique_ptr.275", %"class.v8::Global.283" }
%struct.uv_loop_s = type { ptr, i32, %struct.uv__queue, %union.anon.259, ptr, i32, i64, i32, %struct.uv__queue, %struct.uv__queue, ptr, i32, i32, %struct.uv__queue, %union.pthread_mutex_t, %struct.uv_async_s, %union.pthread_rwlock_t, ptr, %struct.uv__queue, %struct.uv__queue, %struct.uv__queue, %struct.uv__queue, %struct.uv__queue, ptr, %struct.uv__io_s, i32, %struct.anon, i64, i64, [2 x i32], %struct.uv__io_s, %struct.uv_signal_s, i32, %struct.uv__io_s, ptr, i32 }
%union.anon.259 = type { ptr }
%union.pthread_rwlock_t = type { %struct.__pthread_rwlock_arch_t }
%struct.__pthread_rwlock_arch_t = type { i32, i32, i32, i32, i32, i32, i32, i32, i8, [7 x i8], i64, i32 }
%struct.anon = type { ptr, i32 }
%struct.uv_signal_s = type { ptr, ptr, i32, ptr, %struct.uv__queue, %union.anon.260, ptr, i32, ptr, i32, %struct.anon.261, i32, i32 }
%union.anon.260 = type { [4 x ptr] }
%struct.anon.261 = type { ptr, ptr, ptr, i32 }
%struct.uv__io_s = type { ptr, %struct.uv__queue, %struct.uv__queue, i32, i32, i32 }
%"class.std::optional" = type { %"struct.std::_Optional_base" }
%"struct.std::_Optional_base" = type { %"struct.std::_Optional_payload" }
%"struct.std::_Optional_payload" = type { %"struct.std::_Optional_payload.base", [7 x i8] }
%"struct.std::_Optional_payload.base" = type { %"struct.std::_Optional_payload_base.base" }
%"struct.std::_Optional_payload_base.base" = type <{ %"union.std::_Optional_payload_base<v8::SnapshotCreator>::_Storage", i8 }>
%"union.std::_Optional_payload_base<v8::SnapshotCreator>::_Storage" = type { %"class.v8::SnapshotCreator" }
%"class.v8::SnapshotCreator" = type { ptr }
%"class.std::unique_ptr.267" = type { %"struct.std::__uniq_ptr_data.268" }
%"struct.std::__uniq_ptr_data.268" = type { %"class.std::__uniq_ptr_impl.269" }
%"class.std::__uniq_ptr_impl.269" = type { %"class.std::tuple.270" }
%"class.std::tuple.270" = type { %"struct.std::_Tuple_impl.271" }
%"struct.std::_Tuple_impl.271" = type { %"struct.std::_Head_base.274" }
%"struct.std::_Head_base.274" = type { ptr }
%"class.std::unique_ptr.275" = type { %"struct.std::__uniq_ptr_data.276" }
%"struct.std::__uniq_ptr_data.276" = type { %"class.std::__uniq_ptr_impl.277" }
%"class.std::__uniq_ptr_impl.277" = type { %"class.std::tuple.278" }
%"class.std::tuple.278" = type { %"struct.std::_Tuple_impl.279" }
%"struct.std::_Tuple_impl.279" = type { %"struct.std::_Head_base.282" }
%"struct.std::_Head_base.282" = type { ptr }
%"class.v8::Global.283" = type { %"class.v8::PersistentBase.284" }
%"class.v8::PersistentBase.284" = type { %"class.v8::IndirectHandleBase" }

; Function Attrs: mustprogress nounwind uwtable
define dso_local ptr @_ZNK4node22CommonEnvironmentSetup7contextEv(ptr noundef nonnull align 8 dereferenceable(8) %this) #4 align 2 {
entry:
  %this.addr.i26 = alloca ptr, align 8
  %location.addr.i27 = alloca ptr, align 8
  %this.addr.i24 = alloca ptr, align 8
  %location.addr.i = alloca ptr, align 8
  %retval.i22 = alloca %"class.v8::LocalBase", align 8
  %isolate.addr.i23 = alloca ptr, align 8
  %value.addr.i = alloca i64, align 8
  %this.addr.i.i18 = alloca ptr, align 8
  %this.addr.i19 = alloca ptr, align 8
  %this.addr.i16 = alloca ptr, align 8
  %other.addr.i = alloca ptr, align 8
  %value.addr.i6.i = alloca ptr, align 8
  %value.addr.i.i = alloca ptr, align 8
  %retval.i13 = alloca %"class.v8::LocalBase", align 8
  %isolate.addr.i14 = alloca ptr, align 8
  %that.addr.i15 = alloca ptr, align 8
  %retval.i10 = alloca %"class.v8::Local", align 8
  %isolate.addr.i11 = alloca ptr, align 8
  %that.addr.i12 = alloca ptr, align 8
  %ref.tmp.i = alloca %"class.v8::LocalBase", align 8
  %this.addr.i7.i = alloca ptr, align 8
  %slot.addr.i.i = alloca ptr, align 8
  %this.addr.i.i = alloca ptr, align 8
  %retval.i8 = alloca %"class.v8::Local", align 8
  %isolate.addr.i9 = alloca ptr, align 8
  %that.addr.i = alloca ptr, align 8
  %retval.i = alloca %"class.v8::Local", align 8
  %this.addr.i = alloca ptr, align 8
  %isolate.addr.i = alloca ptr, align 8
  %retval = alloca %"class.v8::Local", align 8
  %this.addr = alloca ptr, align 8
  store ptr %this, ptr %this.addr, align 8
  %this1 = load ptr, ptr %this.addr, align 8
  %impl_ = getelementptr inbounds %"class.node::CommonEnvironmentSetup", ptr %this1, i32 0, i32 0
  %0 = load ptr, ptr %impl_, align 8
  %main_context = getelementptr inbounds %"struct.node::CommonEnvironmentSetup::Impl", ptr %0, i32 0, i32 7
  %impl_2 = getelementptr inbounds %"class.node::CommonEnvironmentSetup", ptr %this1, i32 0, i32 0
  %1 = load ptr, ptr %impl_2, align 8
  %isolate = getelementptr inbounds %"struct.node::CommonEnvironmentSetup::Impl", ptr %1, i32 0, i32 4
  %2 = load ptr, ptr %isolate, align 8
  store ptr %main_context, ptr %this.addr.i, align 8
  store ptr %2, ptr %isolate.addr.i, align 8
  %this1.i = load ptr, ptr %this.addr.i, align 8
  %3 = load ptr, ptr %isolate.addr.i, align 8
  store ptr %3, ptr %isolate.addr.i9, align 8
  store ptr %this1.i, ptr %that.addr.i, align 8
  %4 = load ptr, ptr %isolate.addr.i9, align 8
  %5 = load ptr, ptr %that.addr.i, align 8
  store ptr %5, ptr %this.addr.i.i, align 8
  %this1.i.i = load ptr, ptr %this.addr.i.i, align 8
  store ptr %this1.i.i, ptr %this.addr.i7.i, align 8
  %this1.i8.i = load ptr, ptr %this.addr.i7.i, align 8
  %6 = load ptr, ptr %this1.i8.i, align 8
  store ptr %6, ptr %slot.addr.i.i, align 8
  %7 = load ptr, ptr %slot.addr.i.i, align 8
  store ptr %4, ptr %isolate.addr.i11, align 8
  store ptr %7, ptr %that.addr.i12, align 8
  %8 = load ptr, ptr %isolate.addr.i11, align 8
  %9 = load ptr, ptr %that.addr.i12, align 8
  store ptr %8, ptr %isolate.addr.i14, align 8
  store ptr %9, ptr %that.addr.i15, align 8
  %10 = load ptr, ptr %that.addr.i15, align 8
  store ptr %10, ptr %value.addr.i.i, align 8
  %11 = load ptr, ptr %value.addr.i.i, align 8
  %12 = ptrtoint ptr %11 to i64
  %cmp.i.i = icmp eq i64 %12, 0
  br i1 %cmp.i.i, label %if.then.i, label %if.end.i

if.then.i:                                        ; preds = %entry
  call void @llvm.memset.p0.i64(ptr align 8 %retval.i13, i8 0, i64 8, i1 false)
  store ptr %retval.i13, ptr %this.addr.i19, align 8
  %this1.i20 = load ptr, ptr %this.addr.i19, align 8
  store ptr %this1.i20, ptr %this.addr.i.i18, align 8
  %this1.i.i21 = load ptr, ptr %this.addr.i.i18, align 8
  store ptr null, ptr %this1.i.i21, align 8
  br label %_ZN2v89LocalBaseINS_7ContextEE3NewEPNS_7IsolateEPS1_.exit

if.end.i:                                         ; preds = %entry
  %13 = load ptr, ptr %isolate.addr.i14, align 8
  %14 = load ptr, ptr %that.addr.i15, align 8
  store ptr %14, ptr %value.addr.i6.i, align 8
  %15 = load ptr, ptr %value.addr.i6.i, align 8
  %16 = load i64, ptr %15, align 8
  store ptr %13, ptr %isolate.addr.i23, align 8
  store i64 %16, ptr %value.addr.i, align 8
  %17 = load ptr, ptr %isolate.addr.i23, align 8
  %18 = load i64, ptr %value.addr.i, align 8
  %call.i = call noundef ptr @_ZN2v811HandleScope12CreateHandleEPNS_8internal7IsolateEm(ptr noundef %17, i64 noundef %18) #3
  store ptr %retval.i22, ptr %this.addr.i24, align 8
  store ptr %call.i, ptr %location.addr.i, align 8
  %this1.i25 = load ptr, ptr %this.addr.i24, align 8
  %19 = load ptr, ptr %location.addr.i, align 8
  store ptr %this1.i25, ptr %this.addr.i26, align 8
  store ptr %19, ptr %location.addr.i27, align 8
  %this1.i28 = load ptr, ptr %this.addr.i26, align 8
  %20 = load ptr, ptr %location.addr.i27, align 8
  store ptr %20, ptr %this1.i28, align 8
  %21 = load ptr, ptr %retval.i22, align 8
  store ptr %21, ptr %retval.i13, align 8
  br label %_ZN2v89LocalBaseINS_7ContextEE3NewEPNS_7IsolateEPS1_.exit

_ZN2v89LocalBaseINS_7ContextEE3NewEPNS_7IsolateEPS1_.exit: ; preds = %if.end.i, %if.then.i
  %22 = load ptr, ptr %retval.i13, align 8
  store ptr %22, ptr %ref.tmp.i, align 8
  store ptr %retval.i10, ptr %this.addr.i16, align 8
  store ptr %ref.tmp.i, ptr %other.addr.i, align 8
  %this1.i17 = load ptr, ptr %this.addr.i16, align 8
  %23 = load ptr, ptr %other.addr.i, align 8
  call void @llvm.memcpy.p0.p0.i64(ptr align 8 %this1.i17, ptr align 8 %23, i64 8, i1 false)
  %24 = load ptr, ptr %retval.i10, align 8
  store ptr %24, ptr %retval.i8, align 8
  %25 = load ptr, ptr %retval.i8, align 8
  store ptr %25, ptr %retval.i, align 8
  %26 = load ptr, ptr %retval.i, align 8
  %coerce.dive = getelementptr inbounds %"class.v8::Local", ptr %retval, i32 0, i32 0
  %coerce.dive3 = getelementptr inbounds %"class.v8::LocalBase", ptr %coerce.dive, i32 0, i32 0
  %coerce.dive4 = getelementptr inbounds %"class.v8::IndirectHandleBase", ptr %coerce.dive3, i32 0, i32 0
  store ptr %26, ptr %coerce.dive4, align 8
  %coerce.dive5 = getelementptr inbounds %"class.v8::Local", ptr %retval, i32 0, i32 0
  %coerce.dive6 = getelementptr inbounds %"class.v8::LocalBase", ptr %coerce.dive5, i32 0, i32 0
  %coerce.dive7 = getelementptr inbounds %"class.v8::IndirectHandleBase", ptr %coerce.dive6, i32 0, i32 0
  %27 = load ptr, ptr %coerce.dive7, align 8
  ret ptr %27
}