; Function Attrs: mustprogress nounwind uwtable
define dso_local noundef ptr @_ZNK4node22CommonEnvironmentSetup7contextEv(ptr nocapture noundef nonnull readonly align 8 dereferenceable(8) %this) local_unnamed_addr #3 align 2 {
entry:
  %0 = load ptr, ptr %this, align 8
  %main_context = getelementptr inbounds i8, ptr %0, i64 912
  %1 = load ptr, ptr %main_context, align 8
  %cmp.i.i = icmp eq ptr %1, null
  br i1 %cmp.i.i, label %_ZN2v89LocalBaseINS_7ContextEE3NewEPNS_7IsolateEPS1_.exit, label %if.end.i

if.end.i:                                         ; preds = %entry
  %isolate = getelementptr inbounds i8, ptr %0, i64 888
  %2 = load ptr, ptr %isolate, align 8
  %3 = load i64, ptr %1, align 8
  %call.i = tail call noundef ptr @_ZN2v811HandleScope12CreateHandleEPNS_8internal7IsolateEm(ptr noundef %2, i64 noundef %3) #22
  br label %_ZN2v89LocalBaseINS_7ContextEE3NewEPNS_7IsolateEPS1_.exit

_ZN2v89LocalBaseINS_7ContextEE3NewEPNS_7IsolateEPS1_.exit: ; preds = %entry, %if.end.i
  %retval.i13.sroa.0.0 = phi ptr [ %call.i, %if.end.i ], [ null, %entry ]
  ret ptr %retval.i13.sroa.0.0
}